target datalayout = "e-m:e-p270:32:32-p271:32:32-p272:64:64-i64:64-i128:128-f80:128-n8:16:32:64-S128"
target triple = "x86_64-pc-linux-gnu"

%struct._GLFWlibrary = type { i32, %struct.GLFWallocator, %struct._GLFWplatform, %struct.anon, ptr, ptr, ptr, ptr, i32, i32, [16 x %struct._GLFWjoystick], ptr, i32, %struct._GLFWtls, %struct._GLFWtls, %struct._GLFWmutex, %struct.anon.8, %struct.anon.9, %struct.anon.10, %struct.anon.11, %struct.anon.12, %struct._GLFWlibraryWayland, %struct._GLFWlibraryX11, %struct._GLFWlibraryNull, %struct._GLFWlibraryGLX, %struct._GLFWlibraryLinux }
%struct.GLFWallocator = type { ptr, ptr, ptr, ptr }
%struct._GLFWplatform = type { i32, ptr, ptr, ptr, ptr, ptr, ptr, ptr, ptr, ptr, ptr, ptr, ptr, ptr, ptr, ptr, ptr, ptr, ptr, ptr, ptr, ptr, ptr, ptr, ptr, ptr, ptr, ptr, ptr, ptr, ptr, ptr, ptr, ptr, ptr, ptr, ptr, ptr, ptr, ptr, ptr, ptr, ptr, ptr, ptr, ptr, ptr, ptr, ptr, ptr, ptr, ptr, ptr, ptr, ptr, ptr, ptr, ptr, ptr, ptr, ptr, ptr, ptr, ptr, ptr, ptr, ptr, ptr, ptr, ptr, ptr, ptr }
%struct.anon = type { %struct._GLFWinitconfig, %struct._GLFWfbconfig, %struct._GLFWwndconfig, %struct._GLFWctxconfig, i32 }
%struct._GLFWinitconfig = type { i32, i32, i32, ptr, %struct.anon.0, %struct.anon.1, %struct.anon.2 }
%struct.anon.0 = type { i32, i32 }
%struct.anon.1 = type { i32 }
%struct.anon.2 = type { i32 }
%struct._GLFWfbconfig = type { i32, i32, i32, i32, i32, i32, i32, i32, i32, i32, i32, i32, i32, i32, i32, i32, i64 }
%struct._GLFWwndconfig = type { i32, i32, i32, i32, ptr, i32, i32, i32, i32, i32, i32, i32, i32, i32, i32, i32, i32, %struct.anon.3, %struct.anon.4, %struct.anon.5, %struct.anon.6 }
%struct.anon.3 = type { [256 x i8] }
%struct.anon.4 = type { [256 x i8], [256 x i8] }
%struct.anon.5 = type { i32, i32 }
%struct.anon.6 = type { [256 x i8] }
%struct._GLFWctxconfig = type { i32, i32, i32, i32, i32, i32, i32, i32, i32, i32, ptr, %struct.anon.7 }
%struct.anon.7 = type { i32 }
%struct._GLFWjoystick = type { i32, i32, ptr, i32, ptr, i32, ptr, i32, [128 x i8], ptr, [33 x i8], ptr, %struct._GLFWjoystickLinux }
%struct._GLFWjoystickLinux = type { i32, [4096 x i8], [512 x i32], [64 x i32], [64 x %struct.input_absinfo], [4 x [2 x i32]] }
%struct.input_absinfo = type { i32, i32, i32, i32, i32, i32 }
%struct._GLFWtls = type { %struct._GLFWtlsPOSIX }
%struct._GLFWtlsPOSIX = type { i32, i32 }
%struct._GLFWmutex = type { %struct._GLFWmutexPOSIX }
%struct._GLFWmutexPOSIX = type { i32, %union.pthread_mutex_t }
%union.pthread_mutex_t = type { %struct.__pthread_mutex_s }
%struct.__pthread_mutex_s = type { i32, i32, i32, i32, i32, i16, i16, %struct.__pthread_internal_list }
%struct.__pthread_internal_list = type { ptr, ptr }
%struct.anon.8 = type { i64, %struct._GLFWtimerPOSIX }
%struct._GLFWtimerPOSIX = type { i32, i64 }
%struct.anon.9 = type { i32, ptr, i32, i32, i32, i32, i32, i32, i32, i32, i32, i32, i32, i32, i32, i32, i32, i32, i32, i32, ptr, ptr, ptr, ptr, ptr, ptr, ptr, ptr, ptr, ptr, ptr, ptr, ptr, ptr, ptr, ptr, ptr, ptr, ptr }
%struct.anon.10 = type { ptr, ptr, ptr, ptr, ptr, ptr, ptr, ptr }
%struct.anon.11 = type { i32, ptr, [2 x ptr], ptr, i32, i32, i32, i32, i32, i32, i32 }
%struct.anon.12 = type { ptr, ptr }
%struct._GLFWlibraryWayland = type { ptr, ptr, ptr, ptr, ptr, ptr, ptr, ptr, ptr, ptr, ptr, ptr, ptr, ptr, ptr, ptr, ptr, ptr, ptr, i32, ptr, ptr, ptr, ptr, i32, ptr, ptr, ptr, ptr, ptr, i32, i32, i32, i32, i32, i32, i32, ptr, [256 x i16], [349 x i16], [349 x [5 x i8]], %struct.anon.13, ptr, ptr, %struct.anon.14, %struct.anon.15, %struct.anon.16, %struct.anon.17 }
%struct.anon.13 = type { ptr, ptr, ptr, ptr, ptr, i32, i32, i32, i32, i32, i32, i32, ptr, ptr, ptr, ptr, ptr, ptr, ptr, ptr, ptr, ptr, ptr, ptr, ptr, ptr, ptr, ptr, ptr, ptr, ptr, ptr }
%struct.anon.14 = type { ptr, ptr, ptr, ptr, ptr, ptr, ptr, ptr, ptr, ptr, ptr, ptr, ptr, ptr, ptr, ptr, ptr, ptr, ptr, ptr }
%struct.anon.15 = type { ptr, ptr, ptr, ptr, ptr }
%struct.anon.16 = type { ptr, ptr, ptr, ptr }
%struct.anon.17 = type { ptr, ptr, ptr, i32, ptr, ptr, ptr, ptr, ptr, ptr, ptr, ptr, ptr, ptr, ptr, ptr, ptr, ptr, ptr, ptr, ptr, ptr, ptr, ptr, ptr, ptr, ptr, ptr, ptr }
%struct._GLFWlibraryX11 = type { ptr, i32, i64, float, float, i64, i64, i32, ptr, ptr, i32, ptr, ptr, [349 x [5 x i8]], [256 x i16], [349 x i16], double, double, ptr, [2 x i32], i64, i64, i64, i64, i64, i64, i64, i64, i64, i64, i64, i64, i64, i64, i64, i64, i64, i64, i64, i64, i64, i64, i64, i64, i64, i64, i64, i64, i64, i64, i64, i64, i64, i64, i64, i64, i64, i64, i64, i64, i64, i64, i64, i64, i64, i64, i64, i64, i64, i64, %struct.anon.18, %struct.anon.19, %struct.anon.20, %struct.anon.21, %struct.anon.22, %struct.anon.23, %struct.anon.24, %struct.anon.25, %struct.anon.26, %struct.anon.27, %struct.anon.28, %struct.anon.29, %struct.anon.30 }
%struct.anon.18 = type { ptr, i32, ptr, ptr, ptr, ptr, ptr, ptr, ptr, ptr, ptr, ptr, ptr, ptr, ptr, ptr, ptr, ptr, ptr, ptr, ptr, ptr, ptr, ptr, ptr, ptr, ptr, ptr, ptr, ptr, ptr, ptr, ptr, ptr, ptr, ptr, ptr, ptr, ptr, ptr, ptr, ptr, ptr, ptr, ptr, ptr, ptr, ptr, ptr, ptr, ptr, ptr, ptr, ptr, ptr, ptr, ptr, ptr, ptr, ptr, ptr, ptr, ptr, ptr, ptr, ptr, ptr, ptr, ptr, ptr, ptr, ptr, ptr, ptr, ptr, ptr, ptr, ptr, ptr, ptr, ptr, ptr, ptr, ptr, ptr, ptr, ptr, ptr }
%struct.anon.19 = type { ptr, ptr, ptr, ptr }
%struct.anon.20 = type { i32, ptr, i32, i32, i32, i32, i32, i32, ptr, ptr, ptr, ptr, ptr, ptr, ptr, ptr, ptr, ptr, ptr, ptr, ptr, ptr, ptr, ptr, ptr }
%struct.anon.21 = type { i32, i32, i32, i32, i32, i32, i32, i32, ptr, ptr, ptr, ptr, ptr, ptr, ptr, ptr, ptr }
%struct.anon.22 = type { i32, i32, i32, i32, i32 }
%struct.anon.23 = type { i32, i64, i64 }
%struct.anon.24 = type { ptr, ptr, ptr, ptr, ptr, ptr, ptr }
%struct.anon.25 = type { i32, ptr, i32, i32, ptr, ptr, ptr }
%struct.anon.26 = type { ptr, ptr }
%struct.anon.27 = type { i32, ptr, i32, i32, ptr, ptr, ptr, ptr }
%struct.anon.28 = type { i32, ptr, i32, i32, i32, i32, i32, ptr, ptr }
%struct.anon.29 = type { i32, ptr, i32, i32, i32, i32, ptr, ptr, ptr }
%struct.anon.30 = type { i32, ptr, i32, i32, i32, i32, ptr, ptr, ptr, ptr }
%struct._GLFWlibraryNull = type { i32, i32, ptr, ptr, [121 x i16], [349 x i8] }
%struct._GLFWlibraryGLX = type { i32, i32, i32, i32, ptr, ptr, ptr, ptr, ptr, ptr, ptr, ptr, ptr, ptr, ptr, ptr, ptr, ptr, ptr, ptr, ptr, ptr, ptr, ptr, i32, i32, i32, i32, i32, i32, i32, i32, i32, i32, i32, i32 }
%struct._GLFWlibraryLinux = type { i32, i32, %struct.re_pattern_buffer, i32, i32 }
%struct.re_pattern_buffer = type { ptr, i64, i64, i64, ptr, ptr, i64, i8 }
%struct.anon.39 = type { i32, i32 }

@_glfw = external global %struct._GLFWlibrary, align 8

; Function Attrs: nounwind uwtable
define internal void @keyboardHandleModifiers(ptr noundef %0, ptr noundef %1, i32 noundef %2, i32 noundef %3, i32 noundef %4, i32 noundef %5, i32 noundef %6) #0 {
  %8 = alloca ptr, align 8
  %9 = alloca ptr, align 8
  %10 = alloca i32, align 4
  %11 = alloca i32, align 4
  %12 = alloca i32, align 4
  %13 = alloca i32, align 4
  %14 = alloca i32, align 4
  %15 = alloca [6 x %struct.anon.39], align 16
  %16 = alloca i64, align 8
  store ptr %0, ptr %8, align 8, !tbaa !151
  store ptr %1, ptr %9, align 8, !tbaa !421
  store i32 %2, ptr %10, align 4, !tbaa !129
  store i32 %3, ptr %11, align 4, !tbaa !129
  store i32 %4, ptr %12, align 4, !tbaa !129
  store i32 %5, ptr %13, align 4, !tbaa !129
  store i32 %6, ptr %14, align 4, !tbaa !129
  %17 = load i32, ptr %10, align 4, !tbaa !129
  store i32 %17, ptr getelementptr inbounds nuw (%struct._GLFWlibraryWayland, ptr getelementptr inbounds nuw (%struct._GLFWlibrary, ptr @_glfw, i32 0, i32 21), i32 0, i32 31), align 4, !tbaa !276
  %18 = load ptr, ptr getelementptr inbounds nuw (%struct.anon.13, ptr getelementptr inbounds nuw (%struct._GLFWlibraryWayland, ptr getelementptr inbounds nuw (%struct._GLFWlibrary, ptr @_glfw, i32 0, i32 21), i32 0, i32 41), i32 0, i32 2), align 8, !tbaa !349
  %19 = icmp ne ptr %18, null
  br i1 %19, label %21, label %20

20:                                               ; preds = %7
  br label %77

21:                                               ; preds = %7
  %22 = load ptr, ptr getelementptr inbounds nuw (%struct.anon.13, ptr getelementptr inbounds nuw (%struct._GLFWlibraryWayland, ptr getelementptr inbounds nuw (%struct._GLFWlibrary, ptr @_glfw, i32 0, i32 21), i32 0, i32 41), i32 0, i32 22), align 8, !tbaa !455
  %23 = load ptr, ptr getelementptr inbounds nuw (%struct.anon.13, ptr getelementptr inbounds nuw (%struct._GLFWlibraryWayland, ptr getelementptr inbounds nuw (%struct._GLFWlibrary, ptr @_glfw, i32 0, i32 21), i32 0, i32 41), i32 0, i32 3), align 8, !tbaa !347
  %24 = load i32, ptr %11, align 4, !tbaa !129
  %25 = load i32, ptr %12, align 4, !tbaa !129
  %26 = load i32, ptr %13, align 4, !tbaa !129
  %27 = load i32, ptr %14, align 4, !tbaa !129
  %28 = call i32 %22(ptr noundef %23, i32 noundef %24, i32 noundef %25, i32 noundef %26, i32 noundef 0, i32 noundef 0, i32 noundef %27)
  store i32 0, ptr getelementptr inbounds nuw (%struct.anon.13, ptr getelementptr inbounds nuw (%struct._GLFWlibraryWayland, ptr getelementptr inbounds nuw (%struct._GLFWlibrary, ptr @_glfw, i32 0, i32 21), i32 0, i32 41), i32 0, i32 11), align 8, !tbaa !320
  call void @llvm.lifetime.start.p0(i64 48, ptr %15) #9
  %29 = getelementptr inbounds nuw %struct.anon.39, ptr %15, i32 0, i32 0
  %30 = load i32, ptr getelementptr inbounds nuw (%struct.anon.13, ptr getelementptr inbounds nuw (%struct._GLFWlibraryWayland, ptr getelementptr inbounds nuw (%struct._GLFWlibrary, ptr @_glfw, i32 0, i32 21), i32 0, i32 41), i32 0, i32 5), align 8, !tbaa !442
  store i32 %30, ptr %29, align 8, !tbaa !456
  %31 = getelementptr inbounds nuw %struct.anon.39, ptr %15, i32 0, i32 1
  store i32 2, ptr %31, align 4, !tbaa !457
  %32 = getelementptr inbounds %struct.anon.39, ptr %15, i64 1
  %33 = getelementptr inbounds nuw %struct.anon.39, ptr %32, i32 0, i32 0
  %34 = load i32, ptr getelementptr inbounds nuw (%struct.anon.13, ptr getelementptr inbounds nuw (%struct._GLFWlibraryWayland, ptr getelementptr inbounds nuw (%struct._GLFWlibrary, ptr @_glfw, i32 0, i32 21), i32 0, i32 41), i32 0, i32 6), align 4, !tbaa !443
  store i32 %34, ptr %33, align 8, !tbaa !456
  %35 = getelementptr inbounds nuw %struct.anon.39, ptr %32, i32 0, i32 1
  store i32 4, ptr %35, align 4, !tbaa !457
  %36 = getelementptr inbounds %struct.anon.39, ptr %15, i64 2
  %37 = getelementptr inbounds nuw %struct.anon.39, ptr %36, i32 0, i32 0
  %38 = load i32, ptr getelementptr inbounds nuw (%struct.anon.13, ptr getelementptr inbounds nuw (%struct._GLFWlibraryWayland, ptr getelementptr inbounds nuw (%struct._GLFWlibrary, ptr @_glfw, i32 0, i32 21), i32 0, i32 41), i32 0, i32 7), align 8, !tbaa !444
  store i32 %38, ptr %37, align 8, !tbaa !456
  %39 = getelementptr inbounds nuw %struct.anon.39, ptr %36, i32 0, i32 1
  store i32 1, ptr %39, align 4, !tbaa !457
  %40 = getelementptr inbounds %struct.anon.39, ptr %15, i64 3
  %41 = getelementptr inbounds nuw %struct.anon.39, ptr %40, i32 0, i32 0
  %42 = load i32, ptr getelementptr inbounds nuw (%struct.anon.13, ptr getelementptr inbounds nuw (%struct._GLFWlibraryWayland, ptr getelementptr inbounds nuw (%struct._GLFWlibrary, ptr @_glfw, i32 0, i32 21), i32 0, i32 41), i32 0, i32 8), align 4, !tbaa !445
  store i32 %42, ptr %41, align 8, !tbaa !456
  %43 = getelementptr inbounds nuw %struct.anon.39, ptr %40, i32 0, i32 1
  store i32 8, ptr %43, align 4, !tbaa !457
  %44 = getelementptr inbounds %struct.anon.39, ptr %15, i64 4
  %45 = getelementptr inbounds nuw %struct.anon.39, ptr %44, i32 0, i32 0
  %46 = load i32, ptr getelementptr inbounds nuw (%struct.anon.13, ptr getelementptr inbounds nuw (%struct._GLFWlibraryWayland, ptr getelementptr inbounds nuw (%struct._GLFWlibrary, ptr @_glfw, i32 0, i32 21), i32 0, i32 41), i32 0, i32 9), align 8, !tbaa !446
  store i32 %46, ptr %45, align 8, !tbaa !456
  %47 = getelementptr inbounds nuw %struct.anon.39, ptr %44, i32 0, i32 1
  store i32 16, ptr %47, align 4, !tbaa !457
  %48 = getelementptr inbounds %struct.anon.39, ptr %15, i64 5
  %49 = getelementptr inbounds nuw %struct.anon.39, ptr %48, i32 0, i32 0
  %50 = load i32, ptr getelementptr inbounds nuw (%struct.anon.13, ptr getelementptr inbounds nuw (%struct._GLFWlibraryWayland, ptr getelementptr inbounds nuw (%struct._GLFWlibrary, ptr @_glfw, i32 0, i32 21), i32 0, i32 41), i32 0, i32 10), align 4, !tbaa !447
  store i32 %50, ptr %49, align 8, !tbaa !456
  %51 = getelementptr inbounds nuw %struct.anon.39, ptr %48, i32 0, i32 1
  store i32 32, ptr %51, align 4, !tbaa !457
  call void @llvm.lifetime.start.p0(i64 8, ptr %16) #9
  store i64 0, ptr %16, align 8, !tbaa !130
  br label %52

52:                                               ; preds = %73, %21
  %53 = load i64, ptr %16, align 8, !tbaa !130
  %54 = icmp ult i64 %53, 6
  br i1 %54, label %56, label %55

55:                                               ; preds = %52
  call void @llvm.lifetime.end.p0(i64 8, ptr %16) #9
  br label %76

56:                                               ; preds = %52
  %57 = load ptr, ptr getelementptr inbounds nuw (%struct.anon.13, ptr getelementptr inbounds nuw (%struct._GLFWlibraryWayland, ptr getelementptr inbounds nuw (%struct._GLFWlibrary, ptr @_glfw, i32 0, i32 21), i32 0, i32 41), i32 0, i32 24), align 8, !tbaa !458
  %58 = load ptr, ptr getelementptr inbounds nuw (%struct.anon.13, ptr getelementptr inbounds nuw (%struct._GLFWlibraryWayland, ptr getelementptr inbounds nuw (%struct._GLFWlibrary, ptr @_glfw, i32 0, i32 21), i32 0, i32 41), i32 0, i32 3), align 8, !tbaa !347
  %59 = load i64, ptr %16, align 8, !tbaa !130
  %60 = getelementptr inbounds nuw [6 x %struct.anon.39], ptr %15, i64 0, i64 %59
  %61 = getelementptr inbounds nuw %struct.anon.39, ptr %60, i32 0, i32 0
  %62 = load i32, ptr %61, align 8, !tbaa !456
  %63 = call i32 %57(ptr noundef %58, i32 noundef %62, i32 noundef 8)
  %64 = icmp eq i32 %63, 1
  br i1 %64, label %65, label %72

65:                                               ; preds = %56
  %66 = load i64, ptr %16, align 8, !tbaa !130
  %67 = getelementptr inbounds nuw [6 x %struct.anon.39], ptr %15, i64 0, i64 %66
  %68 = getelementptr inbounds nuw %struct.anon.39, ptr %67, i32 0, i32 1
  %69 = load i32, ptr %68, align 4, !tbaa !457
  %70 = load i32, ptr getelementptr inbounds nuw (%struct.anon.13, ptr getelementptr inbounds nuw (%struct._GLFWlibraryWayland, ptr getelementptr inbounds nuw (%struct._GLFWlibrary, ptr @_glfw, i32 0, i32 21), i32 0, i32 41), i32 0, i32 11), align 8, !tbaa !320
  %71 = or i32 %70, %69
  store i32 %71, ptr getelementptr inbounds nuw (%struct.anon.13, ptr getelementptr inbounds nuw (%struct._GLFWlibraryWayland, ptr getelementptr inbounds nuw (%struct._GLFWlibrary, ptr @_glfw, i32 0, i32 21), i32 0, i32 41), i32 0, i32 11), align 8, !tbaa !320
  br label %72

72:                                               ; preds = %65, %56
  br label %73

73:                                               ; preds = %72
  %74 = load i64, ptr %16, align 8, !tbaa !130
  %75 = add i64 %74, 1
  store i64 %75, ptr %16, align 8, !tbaa !130
  br label %52

76:                                               ; preds = %55
  call void @llvm.lifetime.end.p0(i64 48, ptr %15) #9
  br label %77

77:                                               ; preds = %76, %20
  ret void
}