; Function Attrs: nounwind uwtable
define internal void @keyboardHandleModifiers(ptr readnone captures(none) %0, ptr readnone captures(none) %1, i32 noundef %2, i32 noundef %3, i32 noundef %4, i32 noundef %5, i32 noundef %6) #0 {
  %8 = alloca [6 x %struct.anon.39], align 16
  store i32 %2, ptr getelementptr inbounds nuw (i8, ptr @_glfw, i64 134132), align 4, !tbaa !251
  %9 = load ptr, ptr getelementptr inbounds nuw (i8, ptr @_glfw, i64 137144), align 8, !tbaa !313
  %.not = icmp eq ptr %9, null
  br i1 %.not, label %46, label %10

10:                                               ; preds = %7
  %11 = load ptr, ptr getelementptr inbounds nuw (i8, ptr @_glfw, i64 137280), align 8, !tbaa !380
  %12 = load ptr, ptr getelementptr inbounds nuw (i8, ptr @_glfw, i64 137152), align 8, !tbaa !309
  %13 = tail call i32 %11(ptr noundef %12, i32 noundef %3, i32 noundef %4, i32 noundef %5, i32 noundef 0, i32 noundef 0, i32 noundef %6) #20
  store i32 0, ptr getelementptr inbounds nuw (i8, ptr @_glfw, i64 137192), align 8, !tbaa !283
  call void @llvm.lifetime.start.p0(i64 48, ptr nonnull %8) #20
  %14 = load i32, ptr getelementptr inbounds nuw (i8, ptr @_glfw, i64 137168), align 8, !tbaa !370
  store i32 %14, ptr %8, align 16, !tbaa !381
  %15 = getelementptr inbounds nuw i8, ptr %8, i64 4
  store i32 2, ptr %15, align 4, !tbaa !382
  %16 = getelementptr inbounds nuw i8, ptr %8, i64 8
  %17 = load i32, ptr getelementptr inbounds nuw (i8, ptr @_glfw, i64 137172), align 4, !tbaa !371
  store i32 %17, ptr %16, align 8, !tbaa !381
  %18 = getelementptr inbounds nuw i8, ptr %8, i64 12
  store i32 4, ptr %18, align 4, !tbaa !382
  %19 = getelementptr inbounds nuw i8, ptr %8, i64 16
  %20 = load i32, ptr getelementptr inbounds nuw (i8, ptr @_glfw, i64 137176), align 8, !tbaa !372
  store i32 %20, ptr %19, align 16, !tbaa !381
  %21 = getelementptr inbounds nuw i8, ptr %8, i64 20
  store i32 1, ptr %21, align 4, !tbaa !382
  %22 = getelementptr inbounds nuw i8, ptr %8, i64 24
  %23 = load i32, ptr getelementptr inbounds nuw (i8, ptr @_glfw, i64 137180), align 4, !tbaa !373
  store i32 %23, ptr %22, align 8, !tbaa !381
  %24 = getelementptr inbounds nuw i8, ptr %8, i64 28
  store i32 8, ptr %24, align 4, !tbaa !382
  %25 = getelementptr inbounds nuw i8, ptr %8, i64 32
  %26 = load i32, ptr getelementptr inbounds nuw (i8, ptr @_glfw, i64 137184), align 8, !tbaa !374
  store i32 %26, ptr %25, align 16, !tbaa !381
  %27 = getelementptr inbounds nuw i8, ptr %8, i64 36
  store i32 16, ptr %27, align 4, !tbaa !382
  %28 = getelementptr inbounds nuw i8, ptr %8, i64 40
  %29 = load i32, ptr getelementptr inbounds nuw (i8, ptr @_glfw, i64 137188), align 4, !tbaa !375
  store i32 %29, ptr %28, align 8, !tbaa !381
  %30 = getelementptr inbounds nuw i8, ptr %8, i64 44
  store i32 32, ptr %30, align 4, !tbaa !382
  br label %32

31:                                               ; preds = %44
  call void @llvm.lifetime.end.p0(i64 48, ptr nonnull %8) #20
  br label %46

32:                                               ; preds = %10, %44
  %.09 = phi i64 [ 0, %10 ], [ %45, %44 ]
  %33 = load ptr, ptr getelementptr inbounds nuw (i8, ptr @_glfw, i64 137296), align 8, !tbaa !383
  %34 = load ptr, ptr getelementptr inbounds nuw (i8, ptr @_glfw, i64 137152), align 8, !tbaa !309
  %35 = getelementptr inbounds nuw [6 x %struct.anon.39], ptr %8, i64 0, i64 %.09
  %36 = load i32, ptr %35, align 8, !tbaa !381
  %37 = tail call i32 %33(ptr noundef %34, i32 noundef %36, i32 noundef 8) #20
  %38 = icmp eq i32 %37, 1
  br i1 %38, label %39, label %44

39:                                               ; preds = %32
  %40 = getelementptr inbounds nuw i8, ptr %35, i64 4
  %41 = load i32, ptr %40, align 4, !tbaa !382
  %42 = load i32, ptr getelementptr inbounds nuw (i8, ptr @_glfw, i64 137192), align 8, !tbaa !283
  %43 = or i32 %42, %41
  store i32 %43, ptr getelementptr inbounds nuw (i8, ptr @_glfw, i64 137192), align 8, !tbaa !283
  br label %44

44:                                               ; preds = %32, %39
  %45 = add nuw nsw i64 %.09, 1
  %exitcond.not = icmp eq i64 %45, 6
  br i1 %exitcond.not, label %31, label %32

46:                                               ; preds = %7, %31
  ret void
}